target datalayout = "e-m:e-p270:32:32-p271:32:32-p272:64:64-i64:64-i128:128-f80:128-n8:16:32:64-S128"
target triple = "x86_64-pc-linux-gnu"

%struct.FunctionCallInfoBaseData = type { ptr, ptr, ptr, i32, i8, i16, [0 x %struct.NullableDatum] }
%struct.NullableDatum = type { i64, i8 }

; Function Attrs: inlinehint nounwind uwtable
define internal i64 @Int32GetDatum(i32 noundef %0) #2 {
  %2 = alloca i32, align 4
  store i32 %0, ptr %2, align 4
  %3 = load i32, ptr %2, align 4
  %4 = sext i32 %3 to i64
  ret i64 %4
}

; Function Attrs: nounwind uwtable
define dso_local i64 @bpcharoctetlen(ptr noundef %0) #0 {
  %2 = alloca ptr, align 8
  %3 = alloca i64, align 8
  store ptr %0, ptr %2, align 8
  call void @llvm.lifetime.start.p0(i64 8, ptr %3) #8
  %4 = load ptr, ptr %2, align 8
  %5 = getelementptr inbounds nuw %struct.FunctionCallInfoBaseData, ptr %4, i32 0, i32 6
  %6 = getelementptr inbounds [0 x %struct.NullableDatum], ptr %5, i64 0, i64 0
  %7 = getelementptr inbounds nuw %struct.NullableDatum, ptr %6, i32 0, i32 0
  %8 = load i64, ptr %7, align 8
  store i64 %8, ptr %3, align 8
  %9 = load i64, ptr %3, align 8
  %10 = call i64 @toast_raw_datum_size(i64 noundef %9)
  %11 = sub i64 %10, 4
  %12 = trunc i64 %11 to i32
  %13 = call i64 @Int32GetDatum(i32 noundef %12)
  call void @llvm.lifetime.end.p0(i64 8, ptr %3) #8
  ret i64 %13
}